; Function Attrs: mustprogress nounwind uwtable
define dso_local void @_ZN4llvm5Timer4initENS_9StringRefES1_(ptr noundef nonnull align 8 dereferenceable(176) %0, ptr %1, i64 %2, ptr %3, i64 %4) local_unnamed_addr #0 align 2 {
  %6 = load atomic i64, ptr @_ZL17DefaultTimerGroup acquire, align 8
  %.not.i.i = icmp eq i64 %6, 0
  br i1 %.not.i.i, label %7, label %_ZL20getDefaultTimerGroupv.exit

7:                                                ; preds = %5
  tail call void @_ZNK4llvm17ManagedStaticBase21RegisterManagedStaticEPFPvvEPFvS1_E(ptr noundef nonnull align 8 dereferenceable(24) @_ZL17DefaultTimerGroup, ptr noundef nonnull @_ZN12_GLOBAL__N_123CreateDefaultTimerGroup4callEv, ptr noundef nonnull @_ZN4llvm14object_deleterINS_10TimerGroupEE4callEPv) #19
  br label %_ZL20getDefaultTimerGroupv.exit

_ZL20getDefaultTimerGroupv.exit:                  ; preds = %5, %7
  %8 = load atomic i64, ptr @_ZL17DefaultTimerGroup monotonic, align 8
  %.0.i2.i.i = inttoptr i64 %8 to ptr
  tail call void @_ZN4llvm5Timer4initENS_9StringRefES1_RNS_10TimerGroupE(ptr noundef nonnull align 8 dereferenceable(176) %0, ptr %1, i64 %2, ptr %3, i64 %4, ptr noundef nonnull align 8 dereferenceable(112) %.0.i2.i.i)
  ret void
}